target datalayout = "e-m:e-p270:32:32-p271:32:32-p272:64:64-i64:64-i128:128-f80:128-n8:16:32:64-S128"
target triple = "x86_64-pc-linux-gnu"

%struct.TupleTableSlotOps = type { i64, ptr, ptr, ptr, ptr, ptr, ptr, ptr, ptr, ptr, ptr, ptr, ptr }
%struct.TuplesortPublic = type { ptr, ptr, ptr, ptr, ptr, ptr, ptr, ptr, ptr, i8, i32, ptr, ptr, i32, i8, ptr }
%struct.SortSupportData = type { ptr, i32, i8, i8, i16, ptr, ptr, i8, ptr, ptr, ptr }
%struct.ItemPointerData = type { %struct.BlockIdData, i16 }
%struct.BlockIdData = type { i16, i16 }
%struct.SortTuple = type { ptr, i64, i8, i32 }
%struct.TupleTableSlot = type { i32, i16, i16, ptr, ptr, ptr, ptr, ptr, %struct.ItemPointerData, i32 }

@CurrentMemoryContext = external global ptr, align 8

; Function Attrs: inlinehint nounwind uwtable
define internal ptr @ExecClearTuple(ptr noundef %0) #3 {
  %2 = alloca ptr, align 8
  store ptr %0, ptr %2, align 8
  %3 = load ptr, ptr %2, align 8
  %4 = getelementptr inbounds nuw %struct.TupleTableSlot, ptr %3, i32 0, i32 3
  %5 = load ptr, ptr %4, align 8
  %6 = getelementptr inbounds nuw %struct.TupleTableSlotOps, ptr %5, i32 0, i32 3
  %7 = load ptr, ptr %6, align 8
  %8 = load ptr, ptr %2, align 8
  call void %7(ptr noundef %8)
  %9 = load ptr, ptr %2, align 8
  ret ptr %9
}

; Function Attrs: inlinehint nounwind uwtable
define internal ptr @MemoryContextSwitchTo(ptr noundef %0) #3 {
  %2 = alloca ptr, align 8
  %3 = alloca ptr, align 8
  store ptr %0, ptr %2, align 8
  call void @llvm.lifetime.start.p0(i64 8, ptr %3) #6
  %4 = load ptr, ptr @CurrentMemoryContext, align 8
  store ptr %4, ptr %3, align 8
  %5 = load ptr, ptr %2, align 8
  store ptr %5, ptr @CurrentMemoryContext, align 8
  %6 = load ptr, ptr %3, align 8
  call void @llvm.lifetime.end.p0(i64 8, ptr %3) #6
  ret ptr %6
}

; Function Attrs: nounwind uwtable
define dso_local zeroext i1 @tuplesort_gettupleslot(ptr noundef %0, i1 noundef zeroext %1, i1 noundef zeroext %2, ptr noundef %3, ptr noundef %4) #0 {
  %6 = alloca i1, align 1
  %7 = alloca ptr, align 8
  %8 = alloca i8, align 1
  %9 = alloca i8, align 1
  %10 = alloca ptr, align 8
  %11 = alloca ptr, align 8
  %12 = alloca ptr, align 8
  %13 = alloca ptr, align 8
  %14 = alloca %struct.SortTuple, align 8
  %15 = alloca i32, align 4
  store ptr %0, ptr %7, align 8
  %16 = zext i1 %1 to i8
  store i8 %16, ptr %8, align 1
  %17 = zext i1 %2 to i8
  store i8 %17, ptr %9, align 1
  store ptr %3, ptr %10, align 8
  store ptr %4, ptr %11, align 8
  call void @llvm.lifetime.start.p0(i64 8, ptr %12) #6
  %18 = load ptr, ptr %7, align 8
  store ptr %18, ptr %12, align 8
  call void @llvm.lifetime.start.p0(i64 8, ptr %13) #6
  %19 = load ptr, ptr %12, align 8
  %20 = getelementptr inbounds nuw %struct.TuplesortPublic, ptr %19, i32 0, i32 7
  %21 = load ptr, ptr %20, align 8
  %22 = call ptr @MemoryContextSwitchTo(ptr noundef %21)
  store ptr %22, ptr %13, align 8
  call void @llvm.lifetime.start.p0(i64 24, ptr %14) #6
  %23 = load ptr, ptr %7, align 8
  %24 = load i8, ptr %8, align 1, !range !4, !noundef !5
  %25 = trunc i8 %24 to i1
  %26 = call zeroext i1 @tuplesort_gettuple_common(ptr noundef %23, i1 noundef zeroext %25, ptr noundef %14)
  br i1 %26, label %29, label %27

27:                                               ; preds = %5
  %28 = getelementptr inbounds nuw %struct.SortTuple, ptr %14, i32 0, i32 0
  store ptr null, ptr %28, align 8
  br label %29

29:                                               ; preds = %27, %5
  %30 = load ptr, ptr %13, align 8
  %31 = call ptr @MemoryContextSwitchTo(ptr noundef %30)
  %32 = getelementptr inbounds nuw %struct.SortTuple, ptr %14, i32 0, i32 0
  %33 = load ptr, ptr %32, align 8
  %34 = icmp ne ptr %33, null
  br i1 %34, label %35, label %64

35:                                               ; preds = %29
  %36 = load ptr, ptr %12, align 8
  %37 = getelementptr inbounds nuw %struct.TuplesortPublic, ptr %36, i32 0, i32 11
  %38 = load ptr, ptr %37, align 8
  %39 = getelementptr inbounds nuw %struct.SortSupportData, ptr %38, i32 0, i32 8
  %40 = load ptr, ptr %39, align 8
  %41 = icmp ne ptr %40, null
  br i1 %41, label %42, label %49

42:                                               ; preds = %35
  %43 = load ptr, ptr %11, align 8
  %44 = icmp ne ptr %43, null
  br i1 %44, label %45, label %49

45:                                               ; preds = %42
  %46 = getelementptr inbounds nuw %struct.SortTuple, ptr %14, i32 0, i32 1
  %47 = load i64, ptr %46, align 8
  %48 = load ptr, ptr %11, align 8
  store i64 %47, ptr %48, align 8
  br label %49

49:                                               ; preds = %45, %42, %35
  %50 = load i8, ptr %9, align 1, !range !4, !noundef !5
  %51 = trunc i8 %50 to i1
  br i1 %51, label %52, label %57

52:                                               ; preds = %49
  %53 = getelementptr inbounds nuw %struct.SortTuple, ptr %14, i32 0, i32 0
  %54 = load ptr, ptr %53, align 8
  %55 = call ptr @heap_copy_minimal_tuple(ptr noundef %54)
  %56 = getelementptr inbounds nuw %struct.SortTuple, ptr %14, i32 0, i32 0
  store ptr %55, ptr %56, align 8
  br label %57

57:                                               ; preds = %52, %49
  %58 = getelementptr inbounds nuw %struct.SortTuple, ptr %14, i32 0, i32 0
  %59 = load ptr, ptr %58, align 8
  %60 = load ptr, ptr %10, align 8
  %61 = load i8, ptr %9, align 1, !range !4, !noundef !5
  %62 = trunc i8 %61 to i1
  %63 = call ptr @ExecStoreMinimalTuple(ptr noundef %59, ptr noundef %60, i1 noundef zeroext %62)
  store i1 true, ptr %6, align 1
  store i32 1, ptr %15, align 4
  br label %67

64:                                               ; preds = %29
  %65 = load ptr, ptr %10, align 8
  %66 = call ptr @ExecClearTuple(ptr noundef %65)
  store i1 false, ptr %6, align 1
  store i32 1, ptr %15, align 4
  br label %67

67:                                               ; preds = %64, %57
  call void @llvm.lifetime.end.p0(i64 24, ptr %14) #6
  call void @llvm.lifetime.end.p0(i64 8, ptr %13) #6
  call void @llvm.lifetime.end.p0(i64 8, ptr %12) #6
  %68 = load i1, ptr %6, align 1
  ret i1 %68
}