; Function Attrs: nounwind uwtable
define dso_local noundef zeroext i1 @tuplesort_gettupleslot(ptr noundef %0, i1 noundef zeroext %1, i1 noundef zeroext %2, ptr noundef %3, ptr noundef writeonly captures(address_is_null) %4) local_unnamed_addr #0 {
  %6 = alloca %struct.SortTuple, align 8
  %7 = getelementptr inbounds nuw i8, ptr %0, i64 56
  %8 = load ptr, ptr %7, align 8
  %9 = load ptr, ptr @CurrentMemoryContext, align 8
  store ptr %8, ptr @CurrentMemoryContext, align 8
  call void @llvm.lifetime.start.p0(i64 24, ptr nonnull %6) #12
  %10 = call zeroext i1 @tuplesort_gettuple_common(ptr noundef %0, i1 noundef zeroext %1, ptr noundef nonnull %6) #12
  br i1 %10, label %11, label %.thread

.thread:                                          ; preds = %5
  store ptr null, ptr %6, align 8
  store ptr %9, ptr @CurrentMemoryContext, align 8
  br label %28

11:                                               ; preds = %5
  %.pr = load ptr, ptr %6, align 8
  store ptr %9, ptr @CurrentMemoryContext, align 8
  %.not.not = icmp eq ptr %.pr, null
  br i1 %.not.not, label %28, label %12

12:                                               ; preds = %11
  %13 = getelementptr inbounds nuw i8, ptr %0, i64 80
  %14 = load ptr, ptr %13, align 8
  %15 = getelementptr inbounds nuw i8, ptr %14, i64 40
  %16 = load ptr, ptr %15, align 8
  %17 = icmp ne ptr %16, null
  %18 = icmp ne ptr %4, null
  %or.cond = and i1 %18, %17
  br i1 %or.cond, label %19, label %22

19:                                               ; preds = %12
  %20 = getelementptr inbounds nuw i8, ptr %6, i64 8
  %21 = load i64, ptr %20, align 8
  store i64 %21, ptr %4, align 8
  br label %22

22:                                               ; preds = %19, %12
  br i1 %2, label %23, label %25

23:                                               ; preds = %22
  %24 = call ptr @heap_copy_minimal_tuple(ptr noundef nonnull %.pr) #12
  store ptr %24, ptr %6, align 8
  br label %25

25:                                               ; preds = %23, %22
  %26 = phi ptr [ %24, %23 ], [ %.pr, %22 ]
  %27 = call ptr @ExecStoreMinimalTuple(ptr noundef %26, ptr noundef %3, i1 noundef zeroext %2) #12
  br label %33

28:                                               ; preds = %.thread, %11
  %29 = getelementptr inbounds nuw i8, ptr %3, i64 8
  %30 = load ptr, ptr %29, align 8
  %31 = getelementptr inbounds nuw i8, ptr %30, i64 24
  %32 = load ptr, ptr %31, align 8
  call void %32(ptr noundef %3) #12
  br label %33

33:                                               ; preds = %28, %25
  %.not15 = phi i1 [ false, %28 ], [ true, %25 ]
  call void @llvm.lifetime.end.p0(i64 24, ptr nonnull %6) #12
  ret i1 %.not15
}